; Function Attrs: mustprogress nounwind uwtable
define void @_ZN20colvarbias_histogramD0Ev(ptr noundef nonnull align 8 dereferenceable(440) initializes((0, 8)) %0) unnamed_addr #1 align 2 {
  tail call void @_ZN20colvarbias_histogramD2Ev(ptr noundef nonnull align 8 dereferenceable(440) %0, ptr noundef nonnull @_ZTT20colvarbias_histogram) #21
  %2 = getelementptr inbounds nuw i8, ptr %0, i64 760
  tail call void @_ZN10colvardepsD2Ev(ptr noundef nonnull align 8 dereferenceable(120) %2) #21
  %3 = getelementptr inbounds nuw i8, ptr %0, i64 440
  tail call void @_ZN11colvarparseD2Ev(ptr noundef nonnull align 8 dereferenceable(320) %3) #21
  tail call void @_ZdlPvm(ptr noundef nonnull %0, i64 noundef 880) #22
  ret void
}